; ModuleID = 'source-C-CXX/22/403.cpp'
source_filename = "source-C-CXX/22/403.cpp"
target datalayout = "e-m:e-p270:32:32-p271:32:32-p272:64:64-i64:64-f80:128-n8:16:32:64-S128"
target triple = "x86_64-pc-linux-gnu"

%"class.std::ios_base::Init" = type { i8 }
%"class.std::basic_istream" = type { i32 (...)**, i64, %"class.std::basic_ios" }
%"class.std::basic_ios" = type { %"class.std::ios_base", %"class.std::basic_ostream"*, i8, i8, %"class.std::basic_streambuf"*, %"class.std::ctype"*, %"class.std::num_put"*, %"class.std::num_get"* }
%"class.std::ios_base" = type { i32 (...)**, i64, i64, i32, i32, i32, %"struct.std::ios_base::_Callback_list"*, %"struct.std::ios_base::_Words", [8 x %"struct.std::ios_base::_Words"], i32, %"struct.std::ios_base::_Words"*, %"class.std::locale" }
%"struct.std::ios_base::_Callback_list" = type { %"struct.std::ios_base::_Callback_list"*, void (i32, %"class.std::ios_base"*, i32)*, i32, i32 }
%"struct.std::ios_base::_Words" = type { i8*, i64 }
%"class.std::locale" = type { %"class.std::locale::_Impl"* }
%"class.std::locale::_Impl" = type { i32, %"class.std::locale::facet"**, i64, %"class.std::locale::facet"**, i8** }
%"class.std::locale::facet" = type <{ i32 (...)**, i32, [4 x i8] }>
%"class.std::basic_ostream" = type { i32 (...)**, %"class.std::basic_ios" }
%"class.std::basic_streambuf" = type { i32 (...)**, i8*, i8*, i8*, i8*, i8*, i8*, %"class.std::locale" }
%"class.std::ctype" = type <{ %"class.std::locale::facet.base", [4 x i8], %struct.__locale_struct*, i8, [7 x i8], i32*, i32*, i16*, i8, [256 x i8], [256 x i8], i8, [6 x i8] }>
%"class.std::locale::facet.base" = type <{ i32 (...)**, i32 }>
%struct.__locale_struct = type { [13 x %struct.__locale_data*], i16*, i32*, i32*, [13 x i8*] }
%struct.__locale_data = type opaque
%"class.std::num_put" = type { %"class.std::locale::facet.base", [4 x i8] }
%"class.std::num_get" = type { %"class.std::locale::facet.base", [4 x i8] }

@_ZStL8__ioinit = internal global %"class.std::ios_base::Init" zeroinitializer, align 1
@__dso_handle = external hidden global i8
@_ZSt3cin = external global %"class.std::basic_istream", align 8
@_ZSt4cout = external global %"class.std::basic_ostream", align 8
@.str = private unnamed_addr constant [2 x i8] c" \00", align 1
@llvm.global_ctors = appending global [1 x { i32, void ()*, i8* }] [{ i32, void ()*, i8* } { i32 65535, void ()* @_GLOBAL__sub_I_403.cpp, i8* null }]

declare void @_ZNSt8ios_base4InitC1Ev(%"class.std::ios_base::Init"* nonnull align 1 dereferenceable(1)) unnamed_addr #0

; Function Attrs: nounwind
declare void @_ZNSt8ios_base4InitD1Ev(%"class.std::ios_base::Init"* nonnull align 1 dereferenceable(1)) unnamed_addr #1

; Function Attrs: nofree nounwind
declare i32 @__cxa_atexit(void (i8*)*, i8*, i8*) local_unnamed_addr #2

; Function Attrs: mustprogress norecurse sspstrong uwtable
define dso_local i32 @main() local_unnamed_addr #3 {
  %1 = alloca [100 x i8], align 16
  %2 = alloca [100 x i32], align 16
  %3 = alloca [100 x [1000 x i8]], align 16
  %4 = getelementptr inbounds [100 x i8], [100 x i8]* %1, i64 0, i64 0
  call void @llvm.lifetime.start.p0i8(i64 100, i8* nonnull %4) #9
  %5 = load i8*, i8** bitcast (%"class.std::basic_istream"* @_ZSt3cin to i8**), align 8, !tbaa !5
  %6 = getelementptr i8, i8* %5, i64 -24
  %7 = bitcast i8* %6 to i64*
  %8 = load i64, i64* %7, align 8
  %9 = add nsw i64 %8, 240
  %10 = getelementptr inbounds i8, i8* bitcast (%"class.std::basic_istream"* @_ZSt3cin to i8*), i64 %9
  %11 = bitcast i8* %10 to %"class.std::ctype"**
  %12 = load %"class.std::ctype"*, %"class.std::ctype"** %11, align 8, !tbaa !8
  %13 = icmp eq %"class.std::ctype"* %12, null
  br i1 %13, label %14, label %15

14:                                               ; preds = %0
  tail call void @_ZSt16__throw_bad_castv() #10
  unreachable

15:                                               ; preds = %0
  %16 = getelementptr inbounds %"class.std::ctype", %"class.std::ctype"* %12, i64 0, i32 8
  %17 = load i8, i8* %16, align 8, !tbaa !13
  %18 = icmp eq i8 %17, 0
  br i1 %18, label %22, label %19

19:                                               ; preds = %15
  %20 = getelementptr inbounds %"class.std::ctype", %"class.std::ctype"* %12, i64 0, i32 9, i64 10
  %21 = load i8, i8* %20, align 1, !tbaa !15
  br label %28

22:                                               ; preds = %15
  tail call void @_ZNKSt5ctypeIcE13_M_widen_initEv(%"class.std::ctype"* nonnull align 8 dereferenceable(570) %12)
  %23 = bitcast %"class.std::ctype"* %12 to i8 (%"class.std::ctype"*, i8)***
  %24 = load i8 (%"class.std::ctype"*, i8)**, i8 (%"class.std::ctype"*, i8)*** %23, align 8, !tbaa !5
  %25 = getelementptr inbounds i8 (%"class.std::ctype"*, i8)*, i8 (%"class.std::ctype"*, i8)** %24, i64 6
  %26 = load i8 (%"class.std::ctype"*, i8)*, i8 (%"class.std::ctype"*, i8)** %25, align 8
  %27 = tail call signext i8 %26(%"class.std::ctype"* nonnull align 8 dereferenceable(570) %12, i8 signext 10)
  br label %28

28:                                               ; preds = %19, %22
  %29 = phi i8 [ %21, %19 ], [ %27, %22 ]
  %30 = call nonnull align 8 dereferenceable(16) %"class.std::basic_istream"* @_ZNSi7getlineEPclc(%"class.std::basic_istream"* nonnull align 8 dereferenceable(16) @_ZSt3cin, i8* nonnull %4, i64 100, i8 signext %29)
  %31 = call i64 @strlen(i8* noundef nonnull %4) #11
  %32 = trunc i64 %31 to i32
  %33 = bitcast [100 x i32]* %2 to i8*
  call void @llvm.lifetime.start.p0i8(i64 400, i8* nonnull %33) #9
  %34 = getelementptr inbounds [100 x [1000 x i8]], [100 x [1000 x i8]]* %3, i64 0, i64 0, i64 0
  call void @llvm.lifetime.start.p0i8(i64 100000, i8* nonnull %34) #9
  call void @llvm.memset.p0i8.i64(i8* noundef nonnull align 16 dereferenceable(400) %33, i8 0, i64 400, i1 false)
  %35 = icmp sgt i32 %32, 0
  br i1 %35, label %36, label %60

36:                                               ; preds = %28
  %37 = and i64 %31, 4294967295
  br label %38

38:                                               ; preds = %36, %55
  %39 = phi i64 [ 0, %36 ], [ %58, %55 ]
  %40 = phi i32 [ 0, %36 ], [ %57, %55 ]
  %41 = phi i32 [ 0, %36 ], [ %56, %55 ]
  %42 = getelementptr inbounds [100 x i8], [100 x i8]* %1, i64 0, i64 %39
  %43 = load i8, i8* %42, align 1, !tbaa !15
  %44 = icmp sgt i8 %43, 35
  br i1 %44, label %45, label %53

45:                                               ; preds = %38
  %46 = sext i32 %40 to i64
  %47 = getelementptr inbounds [100 x i32], [100 x i32]* %2, i64 0, i64 %46
  %48 = load i32, i32* %47, align 4, !tbaa !16
  %49 = add nsw i32 %48, 1
  store i32 %49, i32* %47, align 4, !tbaa !16
  %50 = sext i32 %41 to i64
  %51 = getelementptr inbounds [100 x [1000 x i8]], [100 x [1000 x i8]]* %3, i64 0, i64 %46, i64 %50
  store i8 %43, i8* %51, align 1, !tbaa !15
  %52 = add nsw i32 %41, 1
  br label %55

53:                                               ; preds = %38
  %54 = add nsw i32 %40, 1
  br label %55

55:                                               ; preds = %45, %53
  %56 = phi i32 [ %52, %45 ], [ 0, %53 ]
  %57 = phi i32 [ %40, %45 ], [ %54, %53 ]
  %58 = add nuw nsw i64 %39, 1
  %59 = icmp eq i64 %58, %37
  br i1 %59, label %60, label %38, !llvm.loop !18

60:                                               ; preds = %55, %28
  %61 = phi i32 [ 0, %28 ], [ %57, %55 ]
  %62 = sext i32 %61 to i64
  %63 = getelementptr inbounds [100 x [1000 x i8]], [100 x [1000 x i8]]* %3, i64 0, i64 %62, i64 0
  %64 = call i64 @strlen(i8* noundef nonnull dereferenceable(1) %63) #9
  %65 = call nonnull align 8 dereferenceable(8) %"class.std::basic_ostream"* @_ZSt16__ostream_insertIcSt11char_traitsIcEERSt13basic_ostreamIT_T0_ES6_PKS3_l(%"class.std::basic_ostream"* nonnull align 8 dereferenceable(8) @_ZSt4cout, i8* nonnull %63, i64 %64)
  %66 = icmp sgt i32 %61, 0
  br i1 %66, label %67, label %80

67:                                               ; preds = %60
  %68 = zext i32 %61 to i64
  br label %69

69:                                               ; preds = %67, %69
  %70 = phi i64 [ %68, %67 ], [ %79, %69 ]
  %71 = phi i32 [ %61, %67 ], [ %72, %69 ]
  %72 = add nsw i32 %71, -1
  %73 = call nonnull align 8 dereferenceable(8) %"class.std::basic_ostream"* @_ZSt16__ostream_insertIcSt11char_traitsIcEERSt13basic_ostreamIT_T0_ES6_PKS3_l(%"class.std::basic_ostream"* nonnull align 8 dereferenceable(8) @_ZSt4cout, i8* nonnull getelementptr inbounds ([2 x i8], [2 x i8]* @.str, i64 0, i64 0), i64 1)
  %74 = zext i32 %72 to i64
  %75 = getelementptr inbounds [100 x [1000 x i8]], [100 x [1000 x i8]]* %3, i64 0, i64 %74, i64 0
  %76 = call i64 @strlen(i8* noundef nonnull dereferenceable(1) %75) #9
  %77 = call nonnull align 8 dereferenceable(8) %"class.std::basic_ostream"* @_ZSt16__ostream_insertIcSt11char_traitsIcEERSt13basic_ostreamIT_T0_ES6_PKS3_l(%"class.std::basic_ostream"* nonnull align 8 dereferenceable(8) @_ZSt4cout, i8* nonnull %75, i64 %76)
  %78 = icmp sgt i64 %70, 1
  %79 = add nsw i64 %70, -1
  br i1 %78, label %69, label %80, !llvm.loop !20

80:                                               ; preds = %69, %60
  call void @llvm.lifetime.end.p0i8(i64 100000, i8* nonnull %34) #9
  call void @llvm.lifetime.end.p0i8(i64 400, i8* nonnull %33) #9
  call void @llvm.lifetime.end.p0i8(i64 100, i8* nonnull %4) #9
  ret i32 0
}

; Function Attrs: argmemonly mustprogress nofree nosync nounwind willreturn
declare void @llvm.lifetime.start.p0i8(i64 immarg, i8* nocapture) #4

; Function Attrs: argmemonly mustprogress nofree nounwind readonly willreturn
declare i64 @strlen(i8* nocapture) local_unnamed_addr #5

; Function Attrs: argmemonly mustprogress nofree nounwind willreturn writeonly
declare void @llvm.memset.p0i8.i64(i8* nocapture writeonly, i8, i64, i1 immarg) #6

; Function Attrs: argmemonly mustprogress nofree nosync nounwind willreturn
declare void @llvm.lifetime.end.p0i8(i64 immarg, i8* nocapture) #4

declare nonnull align 8 dereferenceable(16) %"class.std::basic_istream"* @_ZNSi7getlineEPclc(%"class.std::basic_istream"* nonnull align 8 dereferenceable(16), i8*, i64, i8 signext) local_unnamed_addr #0

; Function Attrs: noreturn
declare void @_ZSt16__throw_bad_castv() local_unnamed_addr #7

declare void @_ZNKSt5ctypeIcE13_M_widen_initEv(%"class.std::ctype"* nonnull align 8 dereferenceable(570)) local_unnamed_addr #0

declare nonnull align 8 dereferenceable(8) %"class.std::basic_ostream"* @_ZSt16__ostream_insertIcSt11char_traitsIcEERSt13basic_ostreamIT_T0_ES6_PKS3_l(%"class.std::basic_ostream"* nonnull align 8 dereferenceable(8), i8*, i64) local_unnamed_addr #0

; Function Attrs: sspstrong uwtable
define internal void @_GLOBAL__sub_I_403.cpp() #8 section ".text.startup" {
  tail call void @_ZNSt8ios_base4InitC1Ev(%"class.std::ios_base::Init"* nonnull align 1 dereferenceable(1) @_ZStL8__ioinit)
  %1 = tail call i32 @__cxa_atexit(void (i8*)* bitcast (void (%"class.std::ios_base::Init"*)* @_ZNSt8ios_base4InitD1Ev to void (i8*)*), i8* getelementptr inbounds (%"class.std::ios_base::Init", %"class.std::ios_base::Init"* @_ZStL8__ioinit, i64 0, i32 0), i8* nonnull @__dso_handle) #9
  ret void
}


!llvm.module.flags = !{!0, !1, !2, !3}
!llvm.ident = !{!4}

!0 = !{i32 1, !"wchar_size", i32 4}
!1 = !{i32 7, !"PIC Level", i32 2}
!2 = !{i32 7, !"PIE Level", i32 2}
!3 = !{i32 7, !"uwtable", i32 1}
!4 = !{!"clang version 13.0.0"}
!5 = !{!6, !6, i64 0}
!6 = !{!"vtable pointer", !7, i64 0}
!7 = !{!"Simple C++ TBAA"}
!8 = !{!9, !10, i64 240}
!9 = !{!"_ZTSSt9basic_iosIcSt11char_traitsIcEE", !10, i64 216, !11, i64 224, !12, i64 225, !10, i64 232, !10, i64 240, !10, i64 248, !10, i64 256}
!10 = !{!"any pointer", !11, i64 0}
!11 = !{!"omnipotent char", !7, i64 0}
!12 = !{!"bool", !11, i64 0}
!13 = !{!14, !11, i64 56}
!14 = !{!"_ZTSSt5ctypeIcE", !10, i64 16, !12, i64 24, !10, i64 32, !10, i64 40, !10, i64 48, !11, i64 56, !11, i64 57, !11, i64 313, !11, i64 569}
!15 = !{!11, !11, i64 0}
!16 = !{!17, !17, i64 0}
!17 = !{!"int", !11, i64 0}
!18 = distinct !{!18, !19}
!19 = !{!"llvm.loop.mustprogress"}
!20 = distinct !{!20, !19}
